target datalayout = "e-m:e-p270:32:32-p271:32:32-p272:64:64-i64:64-i128:128-f80:128-n8:16:32:64-S128"
target triple = "x86_64-pc-linux-gnu"

%struct._object = type { i64, ptr }
%"class.nanobind::handle" = type { ptr }

; Function Attrs: inlinehint mustprogress nounwind uwtable
define internal void @_ZL10_Py_INCREFP7_object(ptr noundef %0) #12 {
  %2 = alloca ptr, align 8
  store ptr %0, ptr %2, align 8
  %3 = load ptr, ptr %2, align 8
  %4 = getelementptr inbounds nuw %struct._object, ptr %3, i32 0, i32 0
  %5 = load i64, ptr %4, align 8
  %6 = add nsw i64 %5, 1
  store i64 %6, ptr %4, align 8
  ret void
}

; Function Attrs: alwaysinline mustprogress nounwind uwtable
define linkonce_odr hidden noundef ptr @_ZNK8nanobind6handle3ptrEv(ptr noundef nonnull align 8 dereferenceable(8) %0) #13 comdat align 2 {
  %2 = alloca ptr, align 8
  store ptr %0, ptr %2, align 8
  %3 = load ptr, ptr %2, align 8
  %4 = getelementptr inbounds nuw %"class.nanobind::handle", ptr %3, i32 0, i32 0
  %5 = load ptr, ptr %4, align 8
  ret ptr %5
}

; Function Attrs: inlinehint mustprogress uwtable
define internal void @_ZL10_Py_DECREFP7_object(ptr noundef %0) #10 {
  %2 = alloca ptr, align 8
  store ptr %0, ptr %2, align 8
  %3 = load ptr, ptr %2, align 8
  %4 = getelementptr inbounds nuw %struct._object, ptr %3, i32 0, i32 0
  %5 = load i64, ptr %4, align 8
  %6 = add nsw i64 %5, -1
  store i64 %6, ptr %4, align 8
  %7 = icmp ne i64 %6, 0
  br i1 %7, label %8, label %9

8:                                                ; preds = %1
  br label %11

9:                                                ; preds = %1
  %10 = load ptr, ptr %2, align 8
  call void @_Py_Dealloc(ptr noundef %10)
  br label %11

11:                                               ; preds = %9, %8
  ret void
}

; Function Attrs: mustprogress nounwind uwtable
define internal void @_ZN8nanobindL13chain_error_vENS_6handleEPKcP13__va_list_tag(ptr %0, ptr noundef %1, ptr noundef %2) #2 personality ptr @__gxx_personality_v0 {
  %4 = alloca %"class.nanobind::handle", align 8
  %5 = alloca ptr, align 8
  %6 = alloca ptr, align 8
  %7 = alloca ptr, align 8
  %8 = alloca ptr, align 8
  %9 = alloca ptr, align 8
  %10 = alloca i32, align 4
  %11 = alloca ptr, align 8
  %12 = getelementptr inbounds nuw %"class.nanobind::handle", ptr %4, i32 0, i32 0
  store ptr %0, ptr %12, align 8
  store ptr %1, ptr %5, align 8
  store ptr %2, ptr %6, align 8
  call void @llvm.lifetime.start.p0(i64 8, ptr %7) #3
  store ptr null, ptr %7, align 8
  call void @llvm.lifetime.start.p0(i64 8, ptr %8) #3
  store ptr null, ptr %8, align 8
  call void @llvm.lifetime.start.p0(i64 8, ptr %9) #3
  store ptr null, ptr %9, align 8
  invoke void @PyErr_Fetch(ptr noundef %7, ptr noundef %8, ptr noundef %9)
          to label %13 unwind label %56

13:                                               ; preds = %3
  %14 = load ptr, ptr %7, align 8
  %15 = icmp ne ptr %14, null
  br i1 %15, label %16, label %30

16:                                               ; preds = %13
  invoke void @PyErr_NormalizeException(ptr noundef %7, ptr noundef %8, ptr noundef %9)
          to label %17 unwind label %56

17:                                               ; preds = %16
  %18 = load ptr, ptr %9, align 8
  %19 = icmp ne ptr %18, null
  br i1 %19, label %20, label %27

20:                                               ; preds = %17
  %21 = load ptr, ptr %8, align 8
  %22 = load ptr, ptr %9, align 8
  %23 = invoke i32 @PyException_SetTraceback(ptr noundef %21, ptr noundef %22)
          to label %24 unwind label %56

24:                                               ; preds = %20
  %25 = load ptr, ptr %9, align 8
  invoke void @_ZL10_Py_DECREFP7_object(ptr noundef %25)
          to label %26 unwind label %56

26:                                               ; preds = %24
  br label %27

27:                                               ; preds = %26, %17
  %28 = load ptr, ptr %7, align 8
  invoke void @_ZL10_Py_DECREFP7_object(ptr noundef %28)
          to label %29 unwind label %56

29:                                               ; preds = %27
  store ptr null, ptr %9, align 8
  store ptr null, ptr %7, align 8
  br label %30

30:                                               ; preds = %29, %13
  %31 = call noundef ptr @_ZNK8nanobind6handle3ptrEv(ptr noundef nonnull align 8 dereferenceable(8) %4)
  %32 = load ptr, ptr %5, align 8
  %33 = load ptr, ptr %6, align 8
  %34 = invoke ptr @PyErr_FormatV(ptr noundef %31, ptr noundef %32, ptr noundef %33)
          to label %35 unwind label %56

35:                                               ; preds = %30
  %36 = load ptr, ptr %8, align 8
  %37 = icmp ne ptr %36, null
  br i1 %37, label %39, label %38

38:                                               ; preds = %35
  store i32 1, ptr %10, align 4
  br label %53

39:                                               ; preds = %35
  call void @llvm.lifetime.start.p0(i64 8, ptr %11) #3
  store ptr null, ptr %11, align 8
  invoke void @PyErr_Fetch(ptr noundef %7, ptr noundef %11, ptr noundef %9)
          to label %40 unwind label %56

40:                                               ; preds = %39
  invoke void @PyErr_NormalizeException(ptr noundef %7, ptr noundef %11, ptr noundef %9)
          to label %41 unwind label %56

41:                                               ; preds = %40
  %42 = load ptr, ptr %8, align 8
  call void @_ZL10_Py_INCREFP7_object(ptr noundef %42)
  %43 = load ptr, ptr %11, align 8
  %44 = load ptr, ptr %8, align 8
  invoke void @PyException_SetCause(ptr noundef %43, ptr noundef %44)
          to label %45 unwind label %56

45:                                               ; preds = %41
  %46 = load ptr, ptr %11, align 8
  %47 = load ptr, ptr %8, align 8
  invoke void @PyException_SetContext(ptr noundef %46, ptr noundef %47)
          to label %48 unwind label %56

48:                                               ; preds = %45
  %49 = load ptr, ptr %7, align 8
  %50 = load ptr, ptr %11, align 8
  %51 = load ptr, ptr %9, align 8
  invoke void @PyErr_Restore(ptr noundef %49, ptr noundef %50, ptr noundef %51)
          to label %52 unwind label %56

52:                                               ; preds = %48
  call void @llvm.lifetime.end.p0(i64 8, ptr %11) #3
  store i32 0, ptr %10, align 4
  br label %53

53:                                               ; preds = %52, %38
  call void @llvm.lifetime.end.p0(i64 8, ptr %9) #3
  call void @llvm.lifetime.end.p0(i64 8, ptr %8) #3
  call void @llvm.lifetime.end.p0(i64 8, ptr %7) #3
  %54 = load i32, ptr %10, align 4
  switch i32 %54, label %59 [
    i32 0, label %55
    i32 1, label %55
  ]

55:                                               ; preds = %53, %53
  ret void

56:                                               ; preds = %48, %45, %41, %40, %39, %30, %27, %24, %20, %16, %3
  %57 = landingpad { ptr, i32 }
          catch ptr null
  %58 = extractvalue { ptr, i32 } %57, 0
  call void @__clang_call_terminate(ptr %58) #25
  unreachable

59:                                               ; preds = %53
  unreachable
}