; Function Attrs: mustprogress nounwind uwtable
define internal fastcc void @_ZN8nanobindL13chain_error_vENS_6handleEPKcP13__va_list_tag(ptr %0, ptr noundef %1, ptr noundef nonnull %2) unnamed_addr #0 personality ptr @__gxx_personality_v0 {
  %4 = alloca ptr, align 8
  %5 = alloca ptr, align 8
  %6 = alloca ptr, align 8
  %7 = alloca ptr, align 8
  call void @llvm.lifetime.start.p0(i64 8, ptr nonnull %4) #26
  store ptr null, ptr %4, align 8
  call void @llvm.lifetime.start.p0(i64 8, ptr nonnull %5) #26
  store ptr null, ptr %5, align 8
  call void @llvm.lifetime.start.p0(i64 8, ptr nonnull %6) #26
  store ptr null, ptr %6, align 8
  invoke void @PyErr_Fetch(ptr noundef nonnull %4, ptr noundef nonnull %5, ptr noundef nonnull %6)
          to label %8 unwind label %46

8:                                                ; preds = %3
  %9 = load ptr, ptr %4, align 8
  %.not = icmp eq ptr %9, null
  br i1 %.not, label %25, label %10

10:                                               ; preds = %8
  invoke void @PyErr_NormalizeException(ptr noundef nonnull %4, ptr noundef nonnull %5, ptr noundef nonnull %6)
          to label %11 unwind label %46

11:                                               ; preds = %10
  %12 = load ptr, ptr %6, align 8
  %.not2 = icmp eq ptr %12, null
  br i1 %.not2, label %_ZL10_Py_DECREFP7_object.exit, label %13

13:                                               ; preds = %11
  %14 = load ptr, ptr %5, align 8
  %15 = invoke i32 @PyException_SetTraceback(ptr noundef %14, ptr noundef nonnull %12)
          to label %16 unwind label %46

16:                                               ; preds = %13
  %17 = load ptr, ptr %6, align 8
  %18 = load i64, ptr %17, align 8
  %19 = add nsw i64 %18, -1
  store i64 %19, ptr %17, align 8
  %.not.i = icmp eq i64 %19, 0
  br i1 %.not.i, label %20, label %_ZL10_Py_DECREFP7_object.exit

20:                                               ; preds = %16
  invoke void @_Py_Dealloc(ptr noundef nonnull %17)
          to label %_ZL10_Py_DECREFP7_object.exit unwind label %46

_ZL10_Py_DECREFP7_object.exit:                    ; preds = %16, %20, %11
  %21 = load ptr, ptr %4, align 8
  %22 = load i64, ptr %21, align 8
  %23 = add nsw i64 %22, -1
  store i64 %23, ptr %21, align 8
  %.not.i4 = icmp eq i64 %23, 0
  br i1 %.not.i4, label %24, label %_ZL10_Py_DECREFP7_object.exit6

24:                                               ; preds = %_ZL10_Py_DECREFP7_object.exit
  invoke void @_Py_Dealloc(ptr noundef nonnull %21)
          to label %_ZL10_Py_DECREFP7_object.exit6 unwind label %46

_ZL10_Py_DECREFP7_object.exit6:                   ; preds = %_ZL10_Py_DECREFP7_object.exit, %24
  store ptr null, ptr %6, align 8
  store ptr null, ptr %4, align 8
  br label %25

25:                                               ; preds = %_ZL10_Py_DECREFP7_object.exit6, %8
  %26 = invoke ptr @PyErr_FormatV(ptr noundef %0, ptr noundef %1, ptr noundef nonnull %2)
          to label %27 unwind label %46

27:                                               ; preds = %25
  %28 = load ptr, ptr %5, align 8
  %.not3 = icmp eq ptr %28, null
  br i1 %.not3, label %45, label %29

29:                                               ; preds = %27
  call void @llvm.lifetime.start.p0(i64 8, ptr nonnull %7) #26
  store ptr null, ptr %7, align 8
  invoke void @PyErr_Fetch(ptr noundef nonnull %4, ptr noundef nonnull %7, ptr noundef nonnull %6)
          to label %30 unwind label %46

30:                                               ; preds = %29
  invoke void @PyErr_NormalizeException(ptr noundef nonnull %4, ptr noundef nonnull %7, ptr noundef nonnull %6)
          to label %31 unwind label %46

31:                                               ; preds = %30
  %32 = load ptr, ptr %5, align 8
  %33 = load i64, ptr %32, align 8
  %34 = add nsw i64 %33, 1
  store i64 %34, ptr %32, align 8
  %35 = load ptr, ptr %7, align 8
  %36 = load ptr, ptr %5, align 8
  invoke void @PyException_SetCause(ptr noundef %35, ptr noundef %36)
          to label %37 unwind label %46

37:                                               ; preds = %31
  %38 = load ptr, ptr %7, align 8
  %39 = load ptr, ptr %5, align 8
  invoke void @PyException_SetContext(ptr noundef %38, ptr noundef %39)
          to label %40 unwind label %46

40:                                               ; preds = %37
  %41 = load ptr, ptr %4, align 8
  %42 = load ptr, ptr %7, align 8
  %43 = load ptr, ptr %6, align 8
  invoke void @PyErr_Restore(ptr noundef %41, ptr noundef %42, ptr noundef %43)
          to label %44 unwind label %46

44:                                               ; preds = %40
  call void @llvm.lifetime.end.p0(i64 8, ptr nonnull %7) #26
  br label %45

45:                                               ; preds = %27, %44
  call void @llvm.lifetime.end.p0(i64 8, ptr nonnull %6) #26
  call void @llvm.lifetime.end.p0(i64 8, ptr nonnull %5) #26
  call void @llvm.lifetime.end.p0(i64 8, ptr nonnull %4) #26
  ret void

46:                                               ; preds = %24, %20, %40, %37, %31, %30, %29, %25, %13, %10, %3
  %47 = landingpad { ptr, i32 }
          catch ptr null
  %48 = extractvalue { ptr, i32 } %47, 0
  call void @__clang_call_terminate(ptr %48) #27
  unreachable
}